target datalayout = "e-m:e-p270:32:32-p271:32:32-p272:64:64-i64:64-i128:128-f80:128-n8:16:32:64-S128"
target triple = "x86_64-pc-linux-gnu"

%struct.construct_data_st = type { ptr, ptr, i32, i32, ptr, ptr }

@.str = private unnamed_addr constant [31 x i8] c"../openssl/crypto/core_fetch.c\00", align 1
@__func__.ossl_method_construct_postcondition = private unnamed_addr constant [36 x i8] c"ossl_method_construct_postcondition\00", align 1

; Function Attrs: nounwind uwtable
define internal i32 @is_temporary_method_store(i32 noundef %0, ptr noundef %1) #0 {
  %3 = alloca i32, align 4
  %4 = alloca ptr, align 8
  %5 = alloca ptr, align 8
  store i32 %0, ptr %3, align 4, !tbaa !8
  store ptr %1, ptr %4, align 8, !tbaa !14
  call void @llvm.lifetime.start.p0(i64 8, ptr %5) #4
  %6 = load ptr, ptr %4, align 8, !tbaa !14
  store ptr %6, ptr %5, align 8, !tbaa !27
  %7 = load i32, ptr %3, align 4, !tbaa !8
  %8 = icmp ne i32 %7, 0
  br i1 %8, label %9, label %15

9:                                                ; preds = %2
  %10 = load ptr, ptr %5, align 8, !tbaa !27
  %11 = getelementptr inbounds nuw %struct.construct_data_st, ptr %10, i32 0, i32 3
  %12 = load i32, ptr %11, align 4, !tbaa !20
  %13 = icmp ne i32 %12, 0
  %14 = xor i1 %13, true
  br label %15

15:                                               ; preds = %9, %2
  %16 = phi i1 [ false, %2 ], [ %14, %9 ]
  %17 = zext i1 %16 to i32
  call void @llvm.lifetime.end.p0(i64 8, ptr %5) #4
  ret i32 %17
}

; Function Attrs: nounwind uwtable
define internal i32 @ossl_method_construct_postcondition(ptr noundef %0, i32 noundef %1, i32 noundef %2, ptr noundef %3, ptr noundef %4) #0 {
  %6 = alloca i32, align 4
  %7 = alloca ptr, align 8
  %8 = alloca i32, align 4
  %9 = alloca i32, align 4
  %10 = alloca ptr, align 8
  %11 = alloca ptr, align 8
  store ptr %0, ptr %7, align 8, !tbaa !15
  store i32 %1, ptr %8, align 4, !tbaa !8
  store i32 %2, ptr %9, align 4, !tbaa !8
  store ptr %3, ptr %10, align 8, !tbaa !14
  store ptr %4, ptr %11, align 8, !tbaa !25
  %12 = load ptr, ptr %11, align 8, !tbaa !25
  %13 = icmp ne ptr %12, null
  %14 = zext i1 %13 to i32
  %15 = icmp ne i32 %14, 0
  %16 = xor i1 %15, true
  %17 = xor i1 %16, true
  %18 = zext i1 %17 to i32
  %19 = sext i32 %18 to i64
  %20 = call i64 @llvm.expect.i64(i64 %19, i64 1)
  %21 = icmp ne i64 %20, 0
  br i1 %21, label %23, label %22

22:                                               ; preds = %5
  call void @ERR_new()
  call void @ERR_set_debug(ptr noundef @.str, i32 noundef 92, ptr noundef @__func__.ossl_method_construct_postcondition)
  call void (i32, i32, ptr, ...) @ERR_set_error(i32 noundef 15, i32 noundef 786690, ptr noundef null)
  store i32 0, ptr %6, align 4
  br label %38

23:                                               ; preds = %5
  %24 = load ptr, ptr %11, align 8, !tbaa !25
  store i32 1, ptr %24, align 4, !tbaa !8
  %25 = load i32, ptr %9, align 4, !tbaa !8
  %26 = load ptr, ptr %10, align 8, !tbaa !14
  %27 = call i32 @is_temporary_method_store(i32 noundef %25, ptr noundef %26)
  %28 = icmp ne i32 %27, 0
  br i1 %28, label %35, label %29

29:                                               ; preds = %23
  %30 = load ptr, ptr %7, align 8, !tbaa !15
  %31 = load i32, ptr %8, align 4, !tbaa !8
  %32 = sext i32 %31 to i64
  %33 = call i32 @ossl_provider_set_operation_bit(ptr noundef %30, i64 noundef %32)
  %34 = icmp ne i32 %33, 0
  br label %35

35:                                               ; preds = %29, %23
  %36 = phi i1 [ true, %23 ], [ %34, %29 ]
  %37 = zext i1 %36 to i32
  store i32 %37, ptr %6, align 4
  br label %38

38:                                               ; preds = %35, %22
  %39 = load i32, ptr %6, align 4
  ret i32 %39
}